target datalayout = "e-m:e-p270:32:32-p271:32:32-p272:64:64-i64:64-i128:128-f80:128-n8:16:32:64-S128"
target triple = "x86_64-pc-linux-gnu"

@curl_version.out = internal global [300 x i8] zeroinitializer, align 16
@.str = private unnamed_addr constant [19 x i8] c"libcurl/8.12.0-DEV\00", align 1
@.str.1 = private unnamed_addr constant [8 x i8] c"zlib/%s\00", align 1
@.str.3 = private unnamed_addr constant [16 x i8] c"brotli/%u.%u.%u\00", align 1
@.str.4 = private unnamed_addr constant [14 x i8] c"zstd/%u.%u.%u\00", align 1
@.str.5 = private unnamed_addr constant [11 x i8] c"libidn2/%s\00", align 1
@.str.6 = private unnamed_addr constant [16 x i8] c"libpsl/%d.%d.%d\00", align 1

; Function Attrs: nounwind uwtable
define internal void @psl_version(ptr noundef %0, i64 noundef %1) #0 {
  %3 = alloca ptr, align 8
  %4 = alloca i64, align 8
  %5 = alloca i32, align 4
  store ptr %0, ptr %3, align 8, !tbaa !7
  store i64 %1, ptr %4, align 8, !tbaa !10
  call void @llvm.lifetime.start.p0(i64 4, ptr %5) #5
  %6 = call i32 @psl_check_version_number(i32 noundef 0)
  store i32 %6, ptr %5, align 4, !tbaa !3
  %7 = load ptr, ptr %3, align 8, !tbaa !7
  %8 = load i64, ptr %4, align 8, !tbaa !10
  %9 = load i32, ptr %5, align 4, !tbaa !3
  %10 = ashr i32 %9, 16
  %11 = load i32, ptr %5, align 4, !tbaa !3
  %12 = ashr i32 %11, 8
  %13 = and i32 %12, 255
  %14 = load i32, ptr %5, align 4, !tbaa !3
  %15 = and i32 %14, 255
  %16 = call i32 (ptr, i64, ptr, ...) @curl_msnprintf(ptr noundef %7, i64 noundef %8, ptr noundef @.str.6, i32 noundef %10, i32 noundef %13, i32 noundef %15)
  call void @llvm.lifetime.end.p0(i64 4, ptr %5) #5
  ret void
}

; Function Attrs: nounwind uwtable
define internal void @idn_version(ptr noundef %0, i64 noundef %1) #0 {
  %3 = alloca ptr, align 8
  %4 = alloca i64, align 8
  store ptr %0, ptr %3, align 8, !tbaa !7
  store i64 %1, ptr %4, align 8, !tbaa !10
  %5 = load ptr, ptr %3, align 8, !tbaa !7
  %6 = load i64, ptr %4, align 8, !tbaa !10
  %7 = call ptr @idn2_check_version(ptr noundef null) #6
  %8 = call i32 (ptr, i64, ptr, ...) @curl_msnprintf(ptr noundef %5, i64 noundef %6, ptr noundef @.str.5, ptr noundef %7)
  ret void
}

; Function Attrs: nounwind uwtable
define internal void @zstd_version(ptr noundef %0, i64 noundef %1) #0 {
  %3 = alloca ptr, align 8
  %4 = alloca i64, align 8
  %5 = alloca i32, align 4
  %6 = alloca i32, align 4
  %7 = alloca i32, align 4
  %8 = alloca i32, align 4
  store ptr %0, ptr %3, align 8, !tbaa !7
  store i64 %1, ptr %4, align 8, !tbaa !10
  call void @llvm.lifetime.start.p0(i64 4, ptr %5) #5
  %9 = call i32 @ZSTD_versionNumber()
  store i32 %9, ptr %5, align 4, !tbaa !3
  call void @llvm.lifetime.start.p0(i64 4, ptr %6) #5
  %10 = load i32, ptr %5, align 4, !tbaa !3
  %11 = udiv i32 %10, 10000
  store i32 %11, ptr %6, align 4, !tbaa !3
  call void @llvm.lifetime.start.p0(i64 4, ptr %7) #5
  %12 = load i32, ptr %5, align 4, !tbaa !3
  %13 = load i32, ptr %6, align 4, !tbaa !3
  %14 = mul i32 %13, 100
  %15 = mul i32 %14, 100
  %16 = sub i32 %12, %15
  %17 = udiv i32 %16, 100
  store i32 %17, ptr %7, align 4, !tbaa !3
  call void @llvm.lifetime.start.p0(i64 4, ptr %8) #5
  %18 = load i32, ptr %5, align 4, !tbaa !3
  %19 = load i32, ptr %6, align 4, !tbaa !3
  %20 = mul i32 %19, 100
  %21 = mul i32 %20, 100
  %22 = sub i32 %18, %21
  %23 = load i32, ptr %7, align 4, !tbaa !3
  %24 = mul i32 %23, 100
  %25 = sub i32 %22, %24
  store i32 %25, ptr %8, align 4, !tbaa !3
  %26 = load ptr, ptr %3, align 8, !tbaa !7
  %27 = load i64, ptr %4, align 8, !tbaa !10
  %28 = load i32, ptr %6, align 4, !tbaa !3
  %29 = load i32, ptr %7, align 4, !tbaa !3
  %30 = load i32, ptr %8, align 4, !tbaa !3
  %31 = call i32 (ptr, i64, ptr, ...) @curl_msnprintf(ptr noundef %26, i64 noundef %27, ptr noundef @.str.4, i32 noundef %28, i32 noundef %29, i32 noundef %30)
  call void @llvm.lifetime.end.p0(i64 4, ptr %8) #5
  call void @llvm.lifetime.end.p0(i64 4, ptr %7) #5
  call void @llvm.lifetime.end.p0(i64 4, ptr %6) #5
  call void @llvm.lifetime.end.p0(i64 4, ptr %5) #5
  ret void
}

; Function Attrs: nounwind uwtable
define internal void @brotli_version(ptr noundef %0, i64 noundef %1) #0 {
  %3 = alloca ptr, align 8
  %4 = alloca i64, align 8
  %5 = alloca i32, align 4
  %6 = alloca i32, align 4
  %7 = alloca i32, align 4
  %8 = alloca i32, align 4
  store ptr %0, ptr %3, align 8, !tbaa !7
  store i64 %1, ptr %4, align 8, !tbaa !10
  call void @llvm.lifetime.start.p0(i64 4, ptr %5) #5
  %9 = call i32 @BrotliDecoderVersion()
  store i32 %9, ptr %5, align 4, !tbaa !3
  call void @llvm.lifetime.start.p0(i64 4, ptr %6) #5
  %10 = load i32, ptr %5, align 4, !tbaa !3
  %11 = lshr i32 %10, 24
  store i32 %11, ptr %6, align 4, !tbaa !3
  call void @llvm.lifetime.start.p0(i64 4, ptr %7) #5
  %12 = load i32, ptr %5, align 4, !tbaa !3
  %13 = and i32 %12, 16777215
  %14 = lshr i32 %13, 12
  store i32 %14, ptr %7, align 4, !tbaa !3
  call void @llvm.lifetime.start.p0(i64 4, ptr %8) #5
  %15 = load i32, ptr %5, align 4, !tbaa !3
  %16 = and i32 %15, 4095
  store i32 %16, ptr %8, align 4, !tbaa !3
  %17 = load ptr, ptr %3, align 8, !tbaa !7
  %18 = load i64, ptr %4, align 8, !tbaa !10
  %19 = load i32, ptr %6, align 4, !tbaa !3
  %20 = load i32, ptr %7, align 4, !tbaa !3
  %21 = load i32, ptr %8, align 4, !tbaa !3
  %22 = call i32 (ptr, i64, ptr, ...) @curl_msnprintf(ptr noundef %17, i64 noundef %18, ptr noundef @.str.3, i32 noundef %19, i32 noundef %20, i32 noundef %21)
  call void @llvm.lifetime.end.p0(i64 4, ptr %8) #5
  call void @llvm.lifetime.end.p0(i64 4, ptr %7) #5
  call void @llvm.lifetime.end.p0(i64 4, ptr %6) #5
  call void @llvm.lifetime.end.p0(i64 4, ptr %5) #5
  ret void
}

; Function Attrs: nounwind uwtable
define ptr @curl_version() #0 {
  %1 = alloca ptr, align 8
  %2 = alloca i64, align 8
  %3 = alloca [16 x ptr], align 16
  %4 = alloca [200 x i8], align 16
  %5 = alloca [30 x i8], align 16
  %6 = alloca [30 x i8], align 16
  %7 = alloca [30 x i8], align 16
  %8 = alloca [30 x i8], align 16
  %9 = alloca [30 x i8], align 16
  %10 = alloca i32, align 4
  %11 = alloca i32, align 4
  %12 = alloca i64, align 8
  %13 = alloca i32, align 4
  call void @llvm.lifetime.start.p0(i64 8, ptr %1) #5
  call void @llvm.lifetime.start.p0(i64 8, ptr %2) #5
  call void @llvm.lifetime.start.p0(i64 128, ptr %3) #5
  call void @llvm.lifetime.start.p0(i64 200, ptr %4) #5
  call void @llvm.lifetime.start.p0(i64 30, ptr %5) #5
  call void @llvm.lifetime.start.p0(i64 30, ptr %6) #5
  call void @llvm.lifetime.start.p0(i64 30, ptr %7) #5
  call void @llvm.lifetime.start.p0(i64 30, ptr %8) #5
  call void @llvm.lifetime.start.p0(i64 30, ptr %9) #5
  call void @llvm.lifetime.start.p0(i64 4, ptr %10) #5
  store i32 0, ptr %10, align 4, !tbaa !3
  call void @llvm.lifetime.start.p0(i64 4, ptr %11) #5
  %14 = load i32, ptr %10, align 4, !tbaa !3
  %15 = add nsw i32 %14, 1
  store i32 %15, ptr %10, align 4, !tbaa !3
  %16 = sext i32 %14 to i64
  %17 = getelementptr inbounds [16 x ptr], ptr %3, i64 0, i64 %16
  store ptr @.str, ptr %17, align 8, !tbaa !7
  %18 = getelementptr inbounds [200 x i8], ptr %4, i64 0, i64 0
  call void @Curl_ssl_version(ptr noundef %18, i64 noundef 200)
  %19 = getelementptr inbounds [200 x i8], ptr %4, i64 0, i64 0
  %20 = load i32, ptr %10, align 4, !tbaa !3
  %21 = add nsw i32 %20, 1
  store i32 %21, ptr %10, align 4, !tbaa !3
  %22 = sext i32 %20 to i64
  %23 = getelementptr inbounds [16 x ptr], ptr %3, i64 0, i64 %22
  store ptr %19, ptr %23, align 8, !tbaa !7
  %24 = getelementptr inbounds [30 x i8], ptr %5, i64 0, i64 0
  %25 = call ptr @zlibVersion()
  %26 = call i32 (ptr, i64, ptr, ...) @curl_msnprintf(ptr noundef %24, i64 noundef 30, ptr noundef @.str.1, ptr noundef %25)
  %27 = getelementptr inbounds [30 x i8], ptr %5, i64 0, i64 0
  %28 = load i32, ptr %10, align 4, !tbaa !3
  %29 = add nsw i32 %28, 1
  store i32 %29, ptr %10, align 4, !tbaa !3
  %30 = sext i32 %28 to i64
  %31 = getelementptr inbounds [16 x ptr], ptr %3, i64 0, i64 %30
  store ptr %27, ptr %31, align 8, !tbaa !7
  %32 = getelementptr inbounds [30 x i8], ptr %6, i64 0, i64 0
  call void @brotli_version(ptr noundef %32, i64 noundef 30)
  %33 = getelementptr inbounds [30 x i8], ptr %6, i64 0, i64 0
  %34 = load i32, ptr %10, align 4, !tbaa !3
  %35 = add nsw i32 %34, 1
  store i32 %35, ptr %10, align 4, !tbaa !3
  %36 = sext i32 %34 to i64
  %37 = getelementptr inbounds [16 x ptr], ptr %3, i64 0, i64 %36
  store ptr %33, ptr %37, align 8, !tbaa !7
  %38 = getelementptr inbounds [30 x i8], ptr %7, i64 0, i64 0
  call void @zstd_version(ptr noundef %38, i64 noundef 30)
  %39 = getelementptr inbounds [30 x i8], ptr %7, i64 0, i64 0
  %40 = load i32, ptr %10, align 4, !tbaa !3
  %41 = add nsw i32 %40, 1
  store i32 %41, ptr %10, align 4, !tbaa !3
  %42 = sext i32 %40 to i64
  %43 = getelementptr inbounds [16 x ptr], ptr %3, i64 0, i64 %42
  store ptr %39, ptr %43, align 8, !tbaa !7
  %44 = getelementptr inbounds [30 x i8], ptr %8, i64 0, i64 0
  call void @idn_version(ptr noundef %44, i64 noundef 30)
  %45 = getelementptr inbounds [30 x i8], ptr %8, i64 0, i64 0
  %46 = load i32, ptr %10, align 4, !tbaa !3
  %47 = add nsw i32 %46, 1
  store i32 %47, ptr %10, align 4, !tbaa !3
  %48 = sext i32 %46 to i64
  %49 = getelementptr inbounds [16 x ptr], ptr %3, i64 0, i64 %48
  store ptr %45, ptr %49, align 8, !tbaa !7
  %50 = getelementptr inbounds [30 x i8], ptr %9, i64 0, i64 0
  call void @psl_version(ptr noundef %50, i64 noundef 30)
  %51 = getelementptr inbounds [30 x i8], ptr %9, i64 0, i64 0
  %52 = load i32, ptr %10, align 4, !tbaa !3
  %53 = add nsw i32 %52, 1
  store i32 %53, ptr %10, align 4, !tbaa !3
  %54 = sext i32 %52 to i64
  %55 = getelementptr inbounds [16 x ptr], ptr %3, i64 0, i64 %54
  store ptr %51, ptr %55, align 8, !tbaa !7
  br label %56

56:                                               ; preds = %0
  br label %57

57:                                               ; preds = %56
  br label %58

58:                                               ; preds = %57
  store ptr @curl_version.out, ptr %1, align 8, !tbaa !7
  store i64 300, ptr %2, align 8, !tbaa !10
  store i32 0, ptr %11, align 4, !tbaa !3
  br label %59

59:                                               ; preds = %98, %58
  %60 = load i32, ptr %11, align 4, !tbaa !3
  %61 = load i32, ptr %10, align 4, !tbaa !3
  %62 = icmp slt i32 %60, %61
  br i1 %62, label %63, label %101

63:                                               ; preds = %59
  call void @llvm.lifetime.start.p0(i64 8, ptr %12) #5
  %64 = load i32, ptr %11, align 4, !tbaa !3
  %65 = sext i32 %64 to i64
  %66 = getelementptr inbounds [16 x ptr], ptr %3, i64 0, i64 %65
  %67 = load ptr, ptr %66, align 8, !tbaa !7
  %68 = call i64 @strlen(ptr noundef %67) #6
  store i64 %68, ptr %12, align 8, !tbaa !10
  %69 = load i64, ptr %2, align 8, !tbaa !10
  %70 = load i64, ptr %12, align 8, !tbaa !10
  %71 = add i64 %70, 2
  %72 = icmp ule i64 %69, %71
  br i1 %72, label %73, label %74

73:                                               ; preds = %63
  store i32 4, ptr %13, align 4
  br label %95

74:                                               ; preds = %63
  %75 = load i32, ptr %11, align 4, !tbaa !3
  %76 = icmp ne i32 %75, 0
  br i1 %76, label %77, label %82

77:                                               ; preds = %74
  %78 = load ptr, ptr %1, align 8, !tbaa !7
  %79 = getelementptr inbounds nuw i8, ptr %78, i32 1
  store ptr %79, ptr %1, align 8, !tbaa !7
  store i8 32, ptr %78, align 1, !tbaa !12
  %80 = load i64, ptr %2, align 8, !tbaa !10
  %81 = add i64 %80, -1
  store i64 %81, ptr %2, align 8, !tbaa !10
  br label %82

82:                                               ; preds = %77, %74
  %83 = load ptr, ptr %1, align 8, !tbaa !7
  %84 = load i32, ptr %11, align 4, !tbaa !3
  %85 = sext i32 %84 to i64
  %86 = getelementptr inbounds [16 x ptr], ptr %3, i64 0, i64 %85
  %87 = load ptr, ptr %86, align 8, !tbaa !7
  %88 = load i64, ptr %12, align 8, !tbaa !10
  call void @llvm.memcpy.p0.p0.i64(ptr align 1 %83, ptr align 1 %87, i64 %88, i1 false)
  %89 = load i64, ptr %12, align 8, !tbaa !10
  %90 = load ptr, ptr %1, align 8, !tbaa !7
  %91 = getelementptr inbounds nuw i8, ptr %90, i64 %89
  store ptr %91, ptr %1, align 8, !tbaa !7
  %92 = load i64, ptr %12, align 8, !tbaa !10
  %93 = load i64, ptr %2, align 8, !tbaa !10
  %94 = sub i64 %93, %92
  store i64 %94, ptr %2, align 8, !tbaa !10
  store i32 0, ptr %13, align 4
  br label %95

95:                                               ; preds = %82, %73
  call void @llvm.lifetime.end.p0(i64 8, ptr %12) #5
  %96 = load i32, ptr %13, align 4
  switch i32 %96, label %103 [
    i32 0, label %97
    i32 4, label %101
  ]

97:                                               ; preds = %95
  br label %98

98:                                               ; preds = %97
  %99 = load i32, ptr %11, align 4, !tbaa !3
  %100 = add nsw i32 %99, 1
  store i32 %100, ptr %11, align 4, !tbaa !3
  br label %59, !llvm.loop !13

101:                                              ; preds = %95, %59
  %102 = load ptr, ptr %1, align 8, !tbaa !7
  store i8 0, ptr %102, align 1, !tbaa !12
  store i32 1, ptr %13, align 4
  call void @llvm.lifetime.end.p0(i64 4, ptr %11) #5
  call void @llvm.lifetime.end.p0(i64 4, ptr %10) #5
  call void @llvm.lifetime.end.p0(i64 30, ptr %9) #5
  call void @llvm.lifetime.end.p0(i64 30, ptr %8) #5
  call void @llvm.lifetime.end.p0(i64 30, ptr %7) #5
  call void @llvm.lifetime.end.p0(i64 30, ptr %6) #5
  call void @llvm.lifetime.end.p0(i64 30, ptr %5) #5
  call void @llvm.lifetime.end.p0(i64 200, ptr %4) #5
  call void @llvm.lifetime.end.p0(i64 128, ptr %3) #5
  call void @llvm.lifetime.end.p0(i64 8, ptr %2) #5
  call void @llvm.lifetime.end.p0(i64 8, ptr %1) #5
  ret ptr @curl_version.out

103:                                              ; preds = %95
  unreachable
}