; Function Attrs: nounwind uwtable
define noundef nonnull ptr @curl_version() local_unnamed_addr #0 {
  %1 = alloca [16 x ptr], align 16
  %2 = alloca [200 x i8], align 16
  %3 = alloca [30 x i8], align 16
  %4 = alloca [30 x i8], align 16
  %5 = alloca [30 x i8], align 16
  %6 = alloca [30 x i8], align 16
  %7 = alloca [30 x i8], align 16
  call void @llvm.lifetime.start.p0(i64 128, ptr nonnull %1) #7
  call void @llvm.lifetime.start.p0(i64 200, ptr nonnull %2) #7
  call void @llvm.lifetime.start.p0(i64 30, ptr nonnull %3) #7
  call void @llvm.lifetime.start.p0(i64 30, ptr nonnull %4) #7
  call void @llvm.lifetime.start.p0(i64 30, ptr nonnull %5) #7
  call void @llvm.lifetime.start.p0(i64 30, ptr nonnull %6) #7
  call void @llvm.lifetime.start.p0(i64 30, ptr nonnull %7) #7
  store ptr @.str, ptr %1, align 16, !tbaa !3
  call void @Curl_ssl_version(ptr noundef nonnull %2, i64 noundef 200) #7
  %8 = getelementptr inbounds nuw i8, ptr %1, i64 8
  store ptr %2, ptr %8, align 8, !tbaa !3
  %9 = call ptr @zlibVersion() #7
  %10 = call i32 (ptr, i64, ptr, ...) @curl_msnprintf(ptr noundef nonnull %3, i64 noundef 30, ptr noundef nonnull @.str.1, ptr noundef %9) #7
  %11 = getelementptr inbounds nuw i8, ptr %1, i64 16
  store ptr %3, ptr %11, align 16, !tbaa !3
  %12 = call i32 @BrotliDecoderVersion() #7
  %13 = lshr i32 %12, 24
  %14 = lshr i32 %12, 12
  %15 = and i32 %14, 4095
  %16 = and i32 %12, 4095
  %17 = call i32 (ptr, i64, ptr, ...) @curl_msnprintf(ptr noundef nonnull %4, i64 noundef 30, ptr noundef nonnull @.str.3, i32 noundef %13, i32 noundef %15, i32 noundef %16) #7
  %18 = getelementptr inbounds nuw i8, ptr %1, i64 24
  store ptr %4, ptr %18, align 8, !tbaa !3
  %19 = call i32 @ZSTD_versionNumber() #7
  %20 = udiv i32 %19, 10000
  %.neg.i = mul i32 %20, -10000
  %21 = add i32 %.neg.i, %19
  %22 = udiv i32 %21, 100
  %.neg10.i = mul i32 %22, -100
  %23 = add i32 %.neg10.i, %21
  %24 = call i32 (ptr, i64, ptr, ...) @curl_msnprintf(ptr noundef nonnull %5, i64 noundef 30, ptr noundef nonnull @.str.4, i32 noundef %20, i32 noundef %22, i32 noundef %23) #7
  %25 = getelementptr inbounds nuw i8, ptr %1, i64 32
  store ptr %5, ptr %25, align 16, !tbaa !3
  %26 = call ptr @idn2_check_version(ptr noundef null) #8
  %27 = call i32 (ptr, i64, ptr, ...) @curl_msnprintf(ptr noundef nonnull %6, i64 noundef 30, ptr noundef nonnull @.str.5, ptr noundef %26) #7
  %28 = getelementptr inbounds nuw i8, ptr %1, i64 40
  store ptr %6, ptr %28, align 8, !tbaa !3
  %29 = call i32 @psl_check_version_number(i32 noundef 0) #7
  %30 = ashr i32 %29, 16
  %31 = lshr i32 %29, 8
  %32 = and i32 %31, 255
  %33 = and i32 %29, 255
  %34 = call i32 (ptr, i64, ptr, ...) @curl_msnprintf(ptr noundef nonnull %7, i64 noundef 30, ptr noundef nonnull @.str.6, i32 noundef %30, i32 noundef %32, i32 noundef %33) #7
  %35 = getelementptr inbounds nuw i8, ptr %1, i64 48
  store ptr %7, ptr %35, align 16, !tbaa !3
  br label %36

36:                                               ; preds = %0, %45
  %indvars.iv = phi i64 [ 0, %0 ], [ %indvars.iv.next, %45 ]
  %.02438 = phi ptr [ @curl_version.out, %0 ], [ %47, %45 ]
  %.02636 = phi i64 [ 300, %0 ], [ %48, %45 ]
  %37 = getelementptr inbounds nuw [16 x ptr], ptr %1, i64 0, i64 %indvars.iv
  %38 = load ptr, ptr %37, align 8, !tbaa !3
  %39 = call i64 @strlen(ptr noundef nonnull dereferenceable(1) %38) #8
  %40 = add i64 %39, 2
  %.not = icmp ugt i64 %.02636, %40
  br i1 %.not, label %41, label %49

41:                                               ; preds = %36
  %.not29 = icmp eq i64 %indvars.iv, 0
  br i1 %.not29, label %45, label %42

42:                                               ; preds = %41
  %43 = getelementptr inbounds nuw i8, ptr %.02438, i64 1
  store i8 32, ptr %.02438, align 1, !tbaa !8
  %44 = add i64 %.02636, -1
  %.pre = load ptr, ptr %37, align 8, !tbaa !3
  br label %45

45:                                               ; preds = %41, %42
  %46 = phi ptr [ %.pre, %42 ], [ %38, %41 ]
  %.228 = phi i64 [ %44, %42 ], [ %.02636, %41 ]
  %.3 = phi ptr [ %43, %42 ], [ %.02438, %41 ]
  call void @llvm.memcpy.p0.p0.i64(ptr align 1 %.3, ptr align 1 %46, i64 %39, i1 false)
  %47 = getelementptr inbounds nuw i8, ptr %.3, i64 %39
  %48 = sub i64 %.228, %39
  %indvars.iv.next = add nuw nsw i64 %indvars.iv, 1
  %exitcond.not = icmp eq i64 %indvars.iv.next, 7
  br i1 %exitcond.not, label %49, label %36, !llvm.loop !9

49:                                               ; preds = %36, %45
  %.024.lcssa = phi ptr [ %.02438, %36 ], [ %47, %45 ]
  store i8 0, ptr %.024.lcssa, align 1, !tbaa !8
  call void @llvm.lifetime.end.p0(i64 30, ptr nonnull %7) #7
  call void @llvm.lifetime.end.p0(i64 30, ptr nonnull %6) #7
  call void @llvm.lifetime.end.p0(i64 30, ptr nonnull %5) #7
  call void @llvm.lifetime.end.p0(i64 30, ptr nonnull %4) #7
  call void @llvm.lifetime.end.p0(i64 30, ptr nonnull %3) #7
  call void @llvm.lifetime.end.p0(i64 200, ptr nonnull %2) #7
  call void @llvm.lifetime.end.p0(i64 128, ptr nonnull %1) #7
  ret ptr @curl_version.out
}